(lp0
F0.057783768
aF0.706018185
aF-0.146700853
aF-0.0965923829
aF0.00961787572
aF0.265688219
aF0.461255221
aF-0.914878082
aF1.24124995
aF-1.65912884
aF-0.985109303
aF-0.78017306
aF-1.59624147
aF0.676936709
aF0.0486168957
aF0.0499892112
aF-0.0546417818
aF0.568308169
aF0.733885087
aF1.49175977
aF-1.02034745
aF0.416901913
aF1.31154568
aF1.03563982
aF-0.163436043
aF-1.00101511
aF-0.963648823
aF-0.222176807
aF0.0804624759
aF-0.461370951
aF-0.786777612
aF-0.122148594
aF-0.331872556
aF-0.0855333398
aF2.99508703
aF-0.806389487
aF0.704265005
aF-1.22301872
aF0.190570809
aF0.454918324
aF-0.0417337466
aF-0.633409448
aF0.967563392
aF-0.730323211
aF-1.40684878
aF-0.697437344
aF-0.542994459
aF0.358375684
aF0.186921576
aF0.167013656
aF-0.228165316
aF0.0300210162
aF0.0464725506
aF0.00545300597
aF-0.249279103
aF1.77965608
aF1.01192599
aF-0.211313309
aF-1.68621756
aF-0.622862351
aF0.150482726
aF0.0127020926
aF0.986828798
aF0.399364028
aF-0.155356849
aF0.0111038382
aF-0.741806124
aF-0.617463233
aF-0.26509645
aF-1.2022496
aF1.3906614
aF-0.514017486
aF-0.638745936
aF-0.195035315
aF0.484585361
aF0.187805344
aF-0.121682288
aF0.121885105
aF0.0350327405
aF0.238393565
aF0.495001028
aF1.70929033
aF-0.391373726
aF1.143718
aF1.53314058
aF0.120219806
aF0.295939802
aF-0.283335682
aF0.0802747833
aF-0.0859657681
aF-0.542110285
aF0.671557129
aF-0.631636845
aF0.965407739
aF0.900393992
aF0.20605543
aF0.0746671118
aF-0.71849471
aF1.1813306
aF0.415187944
aF-0.17943881
aF-0.171385631
aF0.334426295
aF-0.020057417
aF-0.851039262
aF1.75330963
aF-3.36063691
aF0.346925104
aF1.67540271
aF0.10389951
aF-0.15401853
aF-0.506443917
aF0.14104841
aF-0.236816984
aF0.716675277
aF-0.609312953
aF1.47215316
aF0.392558038
aF0.540620147
aF-1.09742816
aF-0.0815658418
aF-1.22629845
aF-0.863395842
aF-0.0188595221
aF0.0893978508
aF-0.644015879
aF0.553754829
aF-1.20731279
aF0.645644709
aF1.34695414
aF-0.575938099
aF-1.55505241
aF-0.820698558
aF0.923985362
aF1.57729826
aF0.316217741
aF-0.265920603
aF0.650787223
aF1.00313869
aF0.0441196066
aF0.319658565
aF-0.495562041
aF-1.66290456
aF0.680170176
aF0.130154409
aF-0.117718679
aF0.311766455
aF0.108064554
aF0.0557824561
aF-0.135221817
aF-0.0326102442
aF-0.0666646068
aF0.0419394688
aF-0.00751532566
aF-0.222807914
aF0.164123208
aF-0.0869039518
aF0.0824719809
aF0.0383865485
aF0.0124265896
aF-0.0279075967
aF0.107774402
aF0.0529672791
aF-0.0303904891
aF-0.0851628555
aF0.107795754
aF-0.000276723846
aF0.00363062562
aF0.112598894
aF0.0886916074
aF0.0284222259
aF-0.0254768122
aF0.0248618165
aF0.0719669217
aF-0.0292676549
aF0.0503289768
aF0.0773790093
aF0.00640381136
aF0.0533435251
aF-0.0419214926
aF-0.0908925142
aF0.0186064739
aF-0.066778504
aF-0.103374457
aF-0.0962126496
aF-0.0123730143
aF0.130286649
aF0.0997029354
aF0.127250023
aF0.0800670327
aF0.0463841292
aF0.0553386785
a.